; Function Attrs: mustprogress nounwind uwtable
define dso_local void @_ZN4llvm16AArch64InstrInfoC2ERKNS_16AArch64SubtargetE(ptr noundef nonnull align 8 dereferenceable(408) %0, ptr noundef nonnull align 8 dereferenceable(409552) %1) unnamed_addr #1 align 2 {
  %3 = getelementptr inbounds nuw i8, ptr %0, i64 56
  store ptr null, ptr %3, align 8
  %4 = getelementptr inbounds nuw i8, ptr %0, i64 64
  store i32 325, ptr %4, align 8
  %5 = getelementptr inbounds nuw i8, ptr %0, i64 68
  store i32 326, ptr %5, align 4
  %6 = getelementptr inbounds nuw i8, ptr %0, i64 72
  store i32 441, ptr %6, align 8
  %7 = getelementptr inbounds nuw i8, ptr %0, i64 76
  store i32 -1, ptr %7, align 4
  %8 = getelementptr inbounds i8, ptr %0, i64 8
  store ptr getelementptr inbounds (i8, ptr @_ZN4llvm12AArch64DescsE, i64 261504), ptr %8, align 8
  %9 = getelementptr inbounds i8, ptr %0, i64 16
  store ptr @_ZN4llvm23AArch64InstrNameIndicesE, ptr %9, align 8
  %10 = getelementptr inbounds i8, ptr %0, i64 24
  store ptr @_ZN4llvm20AArch64InstrNameDataE, ptr %10, align 8
  %11 = getelementptr inbounds i8, ptr %0, i64 32
  %12 = getelementptr inbounds i8, ptr %0, i64 48
  tail call void @llvm.memset.p0.i64(ptr noundef nonnull align 8 dereferenceable(16) %11, i8 0, i64 16, i1 false)
  store i32 8173, ptr %12, align 8
  store ptr getelementptr inbounds inrange(-16, 1416) (i8, ptr @_ZTVN4llvm16AArch64InstrInfoE, i64 16), ptr %0, align 8
  %13 = getelementptr inbounds nuw i8, ptr %0, i64 80
  %14 = getelementptr inbounds nuw i8, ptr %1, i64 768
  tail call void @_ZN4llvm19AArch64RegisterInfoC1ERKNS_6TripleE(ptr noundef nonnull align 8 dereferenceable(320) %13, ptr noundef nonnull align 8 dereferenceable(56) %14) #27
  %15 = getelementptr inbounds nuw i8, ptr %0, i64 400
  store ptr %1, ptr %15, align 8
  ret void
}